; Function Attrs: mustprogress nofree norecurse nosync nounwind willreturn memory(argmem: readwrite) uwtable
define dso_local noundef float @_Z18SegmentSqrDistanceRK9btVector3S1_S1_RS_(ptr nocapture noundef nonnull readonly align 4 dereferenceable(16) %from, ptr nocapture noundef nonnull readonly align 4 dereferenceable(16) %to, ptr nocapture noundef nonnull readonly align 4 dereferenceable(16) %p, ptr nocapture noundef nonnull writeonly align 4 dereferenceable(16) %nearest) local_unnamed_addr #2 {
entry:
  %arrayidx11.i = getelementptr inbounds i8, ptr %p, i64 8
  %0 = load float, ptr %arrayidx11.i, align 4
  %arrayidx13.i = getelementptr inbounds i8, ptr %from, i64 8
  %1 = load float, ptr %arrayidx13.i, align 4
  %sub14.i = fsub float %0, %1
  %retval.sroa.3.12.vec.insert.i = insertelement <2 x float> <float poison, float 0.000000e+00>, float %sub14.i, i64 0
  %2 = load <2 x float>, ptr %from, align 4
  %3 = load <2 x float>, ptr %p, align 4
  %4 = fsub <2 x float> %3, %2
  %5 = load <2 x float>, ptr %to, align 4
  %6 = fsub <2 x float> %5, %2
  %arrayidx11.i8 = getelementptr inbounds i8, ptr %to, i64 8
  %7 = load float, ptr %arrayidx11.i8, align 4
  %sub14.i10 = fsub float %7, %1
  %8 = fmul <2 x float> %4, %6
  %mul8.i = extractelement <2 x float> %8, i64 1
  %9 = extractelement <2 x float> %6, i64 0
  %10 = extractelement <2 x float> %4, i64 0
  %11 = tail call float @llvm.fmuladd.f32(float %9, float %10, float %mul8.i)
  %12 = tail call noundef float @llvm.fmuladd.f32(float %sub14.i10, float %sub14.i, float %11)
  %cmp = fcmp ogt float %12, 0.000000e+00
  br i1 %cmp, label %if.then, label %if.end12

if.then:                                          ; preds = %entry
  %13 = extractelement <2 x float> %6, i64 1
  %mul8.i20 = fmul float %13, %13
  %14 = tail call float @llvm.fmuladd.f32(float %9, float %9, float %mul8.i20)
  %15 = tail call noundef float @llvm.fmuladd.f32(float %sub14.i10, float %sub14.i10, float %14)
  %cmp5 = fcmp olt float %12, %15
  br i1 %cmp5, label %if.then6, label %if.else

if.then6:                                         ; preds = %if.then
  %div = fdiv float %12, %15
  %mul8.i.i = fmul float %sub14.i10, %div
  %16 = insertelement <2 x float> poison, float %div, i64 0
  %17 = shufflevector <2 x float> %16, <2 x float> poison, <2 x i32> zeroinitializer
  %18 = fmul <2 x float> %6, %17
  %19 = fsub <2 x float> %4, %18
  %sub13.i = fsub float %sub14.i, %mul8.i.i
  %diff.sroa.15.8.vec.insert = insertelement <2 x float> %retval.sroa.3.12.vec.insert.i, float %sub13.i, i64 0
  br label %if.end12

if.else:                                          ; preds = %if.then
  %20 = fsub <2 x float> %4, %6
  %sub13.i35 = fsub float %sub14.i, %sub14.i10
  %diff.sroa.15.8.vec.insert120 = insertelement <2 x float> %retval.sroa.3.12.vec.insert.i, float %sub13.i35, i64 0
  br label %if.end12

if.end12:                                         ; preds = %entry, %if.then6, %if.else
  %t.0 = phi float [ %div, %if.then6 ], [ 1.000000e+00, %if.else ], [ 0.000000e+00, %entry ]
  %diff.sroa.0.0 = phi <2 x float> [ %19, %if.then6 ], [ %20, %if.else ], [ %4, %entry ]
  %diff.sroa.15.0 = phi <2 x float> [ %diff.sroa.15.8.vec.insert, %if.then6 ], [ %diff.sroa.15.8.vec.insert120, %if.else ], [ %retval.sroa.3.12.vec.insert.i, %entry ]
  %21 = insertelement <2 x float> poison, float %t.0, i64 0
  %22 = shufflevector <2 x float> %21, <2 x float> poison, <2 x i32> zeroinitializer
  %23 = fmul <2 x float> %6, %22
  %mul8.i.i40 = fmul float %sub14.i10, %t.0
  %24 = fadd <2 x float> %2, %23
  %add14.i = fadd float %1, %mul8.i.i40
  %retval.sroa.3.12.vec.insert.i52 = insertelement <2 x float> <float poison, float 0.000000e+00>, float %add14.i, i64 0
  store <2 x float> %24, ptr %nearest, align 4
  %ref.tmp13.sroa.2.0..sroa_idx = getelementptr inbounds i8, ptr %nearest, i64 8
  store <2 x float> %retval.sroa.3.12.vec.insert.i52, ptr %ref.tmp13.sroa.2.0..sroa_idx, align 4
  %diff.sroa.0.0.vec.extract100 = extractelement <2 x float> %diff.sroa.0.0, i64 0
  %25 = fmul <2 x float> %diff.sroa.0.0, %diff.sroa.0.0
  %mul8.i57 = extractelement <2 x float> %25, i64 1
  %26 = tail call float @llvm.fmuladd.f32(float %diff.sroa.0.0.vec.extract100, float %diff.sroa.0.0.vec.extract100, float %mul8.i57)
  %diff.sroa.15.8.vec.extract122 = extractelement <2 x float> %diff.sroa.15.0, i64 0
  %27 = tail call noundef float @llvm.fmuladd.f32(float %diff.sroa.15.8.vec.extract122, float %diff.sroa.15.8.vec.extract122, float %26)
  ret float %27
}